target datalayout = "e-m:e-p270:32:32-p271:32:32-p272:64:64-i64:64-i128:128-f80:128-n8:16:32:64-S128"
target triple = "x86_64-pc-linux-gnu"

; Function Attrs: nounwind uwtable
define hidden i32 @SDL_isinff_REAL(float noundef %0) #0 {
  %2 = alloca float, align 4
  store float %0, ptr %2, align 4
  %3 = load float, ptr %2, align 4
  %4 = call float @llvm.fabs.f32(float %3) #9
  %5 = fcmp oeq float %4, 0x7FF0000000000000
  %6 = bitcast float %3 to i32
  %7 = icmp slt i32 %6, 0
  %8 = select i1 %7, i32 -1, i32 1
  %9 = select i1 %5, i32 %8, i32 0
  ret i32 %9
}