; Function Attrs: mustprogress nofree norecurse nosync nounwind willreturn memory(none) uwtable
define hidden noundef range(i32 -1, 2) i32 @SDL_isinff_REAL(float noundef %0) local_unnamed_addr #2 {
  %2 = tail call float @llvm.fabs.f32(float %0) #11
  %3 = fcmp oeq float %2, 0x7FF0000000000000
  %4 = bitcast float %0 to i32
  %.inv = icmp sgt i32 %4, -1
  %5 = select i1 %.inv, i32 1, i32 -1
  %6 = select i1 %3, i32 %5, i32 0
  ret i32 %6
}